; ModuleID = 'bench/openssl/original/punycode.ll'
source_filename = "bench/openssl/original/punycode.ll"
target datalayout = "e-m:e-p270:32:32-p271:32:32-p272:64:64-i64:64-i128:128-f80:128-n8:16:32:64-S128"
target triple = "x86_64-pc-linux-gnu"

@.str = private unnamed_addr constant [27 x i8] c"../openssl/fuzz/punycode.c\00", align 1

; Function Attrs: mustprogress nofree norecurse nosync nounwind willreturn memory(none) uwtable
define dso_local noundef i32 @FuzzerInitialize(ptr noundef readnone captures(none) %0, ptr noundef readnone captures(none) %1) local_unnamed_addr #0 {
  ret i32 1
}

; Function Attrs: nounwind uwtable
define dso_local noundef i32 @FuzzerTestOneInput(ptr noundef %0, i64 noundef %1) local_unnamed_addr #1 {
  %3 = alloca [16 x i32], align 16
  %4 = alloca i32, align 4
  %5 = alloca [16 x i8], align 16
  call void @llvm.lifetime.start.p0(i64 64, ptr nonnull %3) #5
  call void @llvm.lifetime.start.p0(i64 4, ptr nonnull %4) #5
  store i32 16, ptr %4, align 4, !tbaa !4
  call void @llvm.lifetime.start.p0(i64 16, ptr nonnull %5) #5
  %6 = add i64 %1, 1
  %7 = tail call noalias ptr @CRYPTO_malloc(i64 noundef %6, ptr noundef nonnull @.str, i32 noundef 29) #5
  %.not = icmp eq ptr %7, null
  br i1 %.not, label %12, label %8

8:                                                ; preds = %2
  %9 = call i32 @ossl_punycode_decode(ptr noundef %0, i64 noundef %1, ptr noundef nonnull %3, ptr noundef nonnull %4) #5
  call void @llvm.memcpy.p0.p0.i64(ptr nonnull align 1 %7, ptr align 1 %0, i64 %1, i1 false)
  %10 = getelementptr inbounds nuw i8, ptr %7, i64 %1
  store i8 0, ptr %10, align 1, !tbaa !8
  %11 = call i32 @ossl_a2ulabel(ptr noundef nonnull %7, ptr noundef nonnull %5, i64 noundef 16) #5
  call void @CRYPTO_free(ptr noundef nonnull %7, ptr noundef nonnull @.str, i32 noundef 35) #5
  br label %12

12:                                               ; preds = %8, %2
  call void @llvm.lifetime.end.p0(i64 16, ptr nonnull %5) #5
  call void @llvm.lifetime.end.p0(i64 4, ptr nonnull %4) #5
  call void @llvm.lifetime.end.p0(i64 64, ptr nonnull %3) #5
  ret i32 0
}

; Function Attrs: mustprogress nocallback nofree nosync nounwind willreturn memory(argmem: readwrite)
declare void @llvm.lifetime.start.p0(i64 immarg, ptr captures(none)) #2

declare noalias ptr @CRYPTO_malloc(i64 noundef, ptr noundef, i32 noundef) local_unnamed_addr #3

declare i32 @ossl_punycode_decode(ptr noundef, i64 noundef, ptr noundef, ptr noundef) local_unnamed_addr #3

; Function Attrs: mustprogress nocallback nofree nounwind willreturn memory(argmem: readwrite)
declare void @llvm.memcpy.p0.p0.i64(ptr noalias writeonly captures(none), ptr noalias readonly captures(none), i64, i1 immarg) #4

declare i32 @ossl_a2ulabel(ptr noundef, ptr noundef, i64 noundef) local_unnamed_addr #3

declare void @CRYPTO_free(ptr noundef, ptr noundef, i32 noundef) local_unnamed_addr #3

; Function Attrs: mustprogress nocallback nofree nosync nounwind willreturn memory(argmem: readwrite)
declare void @llvm.lifetime.end.p0(i64 immarg, ptr captures(none)) #2

; Function Attrs: mustprogress nofree norecurse nosync nounwind willreturn memory(none) uwtable
define dso_local void @FuzzerCleanup() local_unnamed_addr #0 {
  ret void
}


!llvm.module.flags = !{!0, !1, !2, !3}

!0 = !{i32 1, !"wchar_size", i32 4}
!1 = !{i32 8, !"PIC Level", i32 2}
!2 = !{i32 7, !"PIE Level", i32 2}
!3 = !{i32 7, !"uwtable", i32 2}
!4 = !{!5, !5, i64 0}
!5 = !{!"int", !6, i64 0}
!6 = !{!"omnipotent char", !7, i64 0}
!7 = !{!"Simple C/C++ TBAA"}
!8 = !{!6, !6, i64 0}
